; ModuleID = '28/242.c'
source_filename = "28/242.c"
target datalayout = "e-m:e-p270:32:32-p271:32:32-p272:64:64-i64:64-f80:128-n8:16:32:64-S128"
target triple = "x86_64-pc-linux-gnu"

@.str = private unnamed_addr constant [3 x i8] c"%d\00", align 1
@.str.1 = private unnamed_addr constant [2 x i8] c",\00", align 1

; Function Attrs: noinline nounwind uwtable
define dso_local i32 @main() #0 {
  %1 = alloca i32, align 4
  %2 = alloca i8, align 1
  %3 = alloca i8*, align 8
  %4 = alloca i32, align 4
  %5 = alloca i32, align 4
  store i32 0, i32* %1, align 4
  store i8 49, i8* %2, align 1
  store i32 0, i32* %4, align 4
  br label %6

6:                                                ; preds = %0, %55
  br label %7

7:                                                ; preds = %17, %6
  %8 = load i8, i8* %2, align 1
  %9 = sext i8 %8 to i32
  %10 = icmp ne i32 %9, 10
  br i1 %10, label %11, label %15

11:                                               ; preds = %7
  %12 = load i8, i8* %2, align 1
  %13 = sext i8 %12 to i32
  %14 = icmp eq i32 %13, 32
  br label %15

15:                                               ; preds = %11, %7
  %16 = phi i1 [ false, %7 ], [ %14, %11 ]
  br i1 %16, label %17, label %20

17:                                               ; preds = %15
  %18 = call i32 @getchar()
  %19 = trunc i32 %18 to i8
  store i8 %19, i8* %2, align 1
  br label %7

20:                                               ; preds = %15
  store i32 0, i32* %5, align 4
  br label %21

21:                                               ; preds = %35, %20
  %22 = load i8, i8* %2, align 1
  %23 = sext i8 %22 to i32
  %24 = icmp ne i32 %23, 10
  br i1 %24, label %25, label %33

25:                                               ; preds = %21
  %26 = load i8, i8* %2, align 1
  %27 = sext i8 %26 to i32
  %28 = icmp ne i32 %27, 32
  br i1 %28, label %29, label %33

29:                                               ; preds = %25
  %30 = load i8, i8* %2, align 1
  %31 = sext i8 %30 to i32
  %32 = icmp ne i32 %31, 0
  br label %33

33:                                               ; preds = %29, %25, %21
  %34 = phi i1 [ false, %25 ], [ false, %21 ], [ %32, %29 ]
  br i1 %34, label %35, label %40

35:                                               ; preds = %33
  %36 = call i32 @getchar()
  %37 = trunc i32 %36 to i8
  store i8 %37, i8* %2, align 1
  %38 = load i32, i32* %5, align 4
  %39 = add nsw i32 %38, 1
  store i32 %39, i32* %5, align 4
  br label %21

40:                                               ; preds = %33
  %41 = load i32, i32* %4, align 4
  %42 = icmp eq i32 %41, 0
  br i1 %42, label %43, label %46

43:                                               ; preds = %40
  %44 = load i32, i32* %5, align 4
  %45 = add nsw i32 %44, -1
  store i32 %45, i32* %5, align 4
  br label %46

46:                                               ; preds = %43, %40
  %47 = load i32, i32* %5, align 4
  %48 = call i32 (i8*, ...) @printf(i8* getelementptr inbounds ([3 x i8], [3 x i8]* @.str, i64 0, i64 0), i32 %47)
  %49 = load i8, i8* %2, align 1
  %50 = sext i8 %49 to i32
  %51 = icmp ne i32 %50, 10
  br i1 %51, label %52, label %54

52:                                               ; preds = %46
  %53 = call i32 (i8*, ...) @printf(i8* getelementptr inbounds ([2 x i8], [2 x i8]* @.str.1, i64 0, i64 0))
  br label %55

54:                                               ; preds = %46
  br label %58

55:                                               ; preds = %52
  %56 = load i32, i32* %4, align 4
  %57 = add nsw i32 %56, 1
  store i32 %57, i32* %4, align 4
  br label %6

58:                                               ; preds = %54
  ret i32 0
}

declare dso_local i32 @getchar() #1

declare dso_local i32 @printf(i8*, ...) #1


!llvm.module.flags = !{!0}
!llvm.ident = !{!1}

!0 = !{i32 1, !"wchar_size", i32 4}
!1 = !{!"clang version 10.0.0-4ubuntu1 "}
